target datalayout = "e-m:e-p270:32:32-p271:32:32-p272:64:64-i64:64-i128:128-f80:128-n8:16:32:64-S128"
target triple = "x86_64-pc-linux-gnu"

; Function Attrs: nounwind uwtable
define dso_local i64 @hash_agg_entry_size(i32 noundef %0, i64 noundef %1, i64 noundef %2) #0 {
  %4 = alloca i32, align 4
  %5 = alloca i64, align 8
  %6 = alloca i64, align 8
  %7 = alloca i64, align 8
  %8 = alloca i64, align 8
  %9 = alloca i64, align 8
  %10 = alloca i64, align 8
  %11 = alloca i64, align 8
  store i32 %0, ptr %4, align 4
  store i64 %1, ptr %5, align 8
  store i64 %2, ptr %6, align 8
  call void @llvm.lifetime.start.p0(i64 8, ptr %7) #9
  call void @llvm.lifetime.start.p0(i64 8, ptr %8) #9
  call void @llvm.lifetime.start.p0(i64 8, ptr %9) #9
  call void @llvm.lifetime.start.p0(i64 8, ptr %10) #9
  %12 = load i64, ptr %5, align 8
  %13 = add i64 16, %12
  store i64 %13, ptr %10, align 8
  call void @llvm.lifetime.start.p0(i64 8, ptr %11) #9
  %14 = load i32, ptr %4, align 4
  %15 = sext i32 %14 to i64
  %16 = mul i64 %15, 16
  store i64 %16, ptr %11, align 8
  %17 = load i64, ptr %10, align 8
  %18 = add i64 8, %17
  store i64 %18, ptr %7, align 8
  %19 = load i64, ptr %11, align 8
  %20 = icmp ugt i64 %19, 0
  br i1 %20, label %21, label %24

21:                                               ; preds = %3
  %22 = load i64, ptr %11, align 8
  %23 = add i64 8, %22
  store i64 %23, ptr %8, align 8
  br label %25

24:                                               ; preds = %3
  store i64 0, ptr %8, align 8
  br label %25

25:                                               ; preds = %24, %21
  %26 = load i64, ptr %6, align 8
  %27 = icmp ugt i64 %26, 0
  br i1 %27, label %28, label %31

28:                                               ; preds = %25
  %29 = load i64, ptr %6, align 8
  %30 = add i64 8, %29
  store i64 %30, ptr %9, align 8
  br label %32

31:                                               ; preds = %25
  store i64 0, ptr %9, align 8
  br label %32

32:                                               ; preds = %31, %28
  %33 = load i64, ptr %7, align 8
  %34 = add i64 24, %33
  %35 = load i64, ptr %8, align 8
  %36 = add i64 %34, %35
  %37 = load i64, ptr %9, align 8
  %38 = add i64 %36, %37
  call void @llvm.lifetime.end.p0(i64 8, ptr %11) #9
  call void @llvm.lifetime.end.p0(i64 8, ptr %10) #9
  call void @llvm.lifetime.end.p0(i64 8, ptr %9) #9
  call void @llvm.lifetime.end.p0(i64 8, ptr %8) #9
  call void @llvm.lifetime.end.p0(i64 8, ptr %7) #9
  ret i64 %38
}