; Function Attrs: mustprogress nofree norecurse nosync nounwind willreturn memory(none) uwtable
define dso_local i64 @hash_agg_entry_size(i32 noundef %0, i64 noundef %1, i64 noundef %2) local_unnamed_addr #0 {
  %.not = icmp eq i32 %0, 0
  %4 = sext i32 %0 to i64
  %5 = shl nsw i64 %4, 4
  %6 = or disjoint i64 %5, 8
  %.0 = select i1 %.not, i64 0, i64 %6
  %.not13 = icmp eq i64 %2, 0
  %7 = add i64 %2, 8
  %.010 = select i1 %.not13, i64 0, i64 %7
  %8 = add i64 %1, 48
  %9 = add i64 %8, %.0
  %10 = add i64 %9, %.010
  ret i64 %10
}